target datalayout = "e-m:e-p270:32:32-p271:32:32-p272:64:64-i64:64-i128:128-f80:128-n8:16:32:64-S128"
target triple = "x86_64-pc-linux-gnu"

%struct.tds_conv_info_t = type { ptr, i32, i32, i32, i32, i32, i32, i32, i32, i8 }

@hf_tds_envchg_length = internal global i32 0, align 4
@hf_tds_envchg_type = internal global i32 0, align 4
@hf_tds_envchg_newvalue_length = internal global i32 0, align 4
@hf_tds_envchg_newvalue_string = internal global i32 0, align 4
@hf_tds_envchg_newvalue_bytes = internal global i32 0, align 4
@hf_tds_envchg_oldvalue_length = internal global i32 0, align 4
@hf_tds_envchg_oldvalue_string = internal global i32 0, align 4
@hf_tds_envchg_oldvalue_bytes = internal global i32 0, align 4
@hf_tds_envchg_collate_codepage = internal global i32 0, align 4
@hf_tds_envchg_collate_flags = internal global i32 0, align 4
@hf_tds_envchg_collate_charset_id = internal global i32 0, align 4

; Function Attrs: nounwind null_pointer_is_valid sspstrong uwtable
define internal i32 @tds_get_char_encoding(ptr noundef %0) #5 {
  %2 = alloca i32, align 4
  %3 = alloca ptr, align 8
  store ptr %0, ptr %3, align 8
  %4 = load ptr, ptr %3, align 8
  %5 = getelementptr inbounds nuw %struct.tds_conv_info_t, ptr %4, i32 0, i32 6
  %6 = load i32, ptr %5, align 4
  switch i32 %6, label %10 [
    i32 6, label %7
    i32 7, label %8
    i32 120, label %9
  ]

7:                                                ; preds = %1
  store i32 0, ptr %2, align 4
  br label %11

8:                                                ; preds = %1
  store i32 46, ptr %2, align 4
  br label %11

9:                                                ; preds = %1
  store i32 -2147483644, ptr %2, align 4
  br label %11

10:                                               ; preds = %1
  store i32 0, ptr %2, align 4
  br label %11

11:                                               ; preds = %10, %9, %8, %7
  %12 = load i32, ptr %2, align 4
  ret i32 %12
}

; Function Attrs: nounwind null_pointer_is_valid sspstrong uwtable
define internal i32 @tds_char_encoding_is_two_byte(ptr noundef %0) #5 {
  %2 = alloca ptr, align 8
  store ptr %0, ptr %2, align 8
  %3 = load ptr, ptr %2, align 8
  %4 = getelementptr inbounds nuw %struct.tds_conv_info_t, ptr %3, i32 0, i32 6
  %5 = load i32, ptr %4, align 4
  %6 = icmp eq i32 %5, 120
  %7 = zext i1 %6 to i32
  ret i32 %7
}

; Function Attrs: nounwind null_pointer_is_valid sspstrong uwtable
define internal i32 @tds_get_int2_encoding(ptr noundef %0) #5 {
  %2 = alloca ptr, align 8
  store ptr %0, ptr %2, align 8
  %3 = load ptr, ptr %2, align 8
  %4 = getelementptr inbounds nuw %struct.tds_conv_info_t, ptr %3, i32 0, i32 4
  %5 = load i32, ptr %4, align 4
  %6 = icmp eq i32 %5, 2
  %7 = select i1 %6, i32 0, i32 -2147483648
  ret i32 %7
}

; Function Attrs: null_pointer_is_valid sspstrong uwtable
define internal i32 @dissect_tds_envchg_token(ptr noundef %0, i32 noundef %1, ptr noundef %2, ptr noundef %3) #0 {
  %5 = alloca ptr, align 8
  %6 = alloca i32, align 4
  %7 = alloca ptr, align 8
  %8 = alloca ptr, align 8
  %9 = alloca i32, align 4
  %10 = alloca i8, align 1
  %11 = alloca i32, align 4
  %12 = alloca i32, align 4
  store ptr %0, ptr %5, align 8
  store i32 %1, ptr %6, align 4
  store ptr %2, ptr %7, align 8
  store ptr %3, ptr %8, align 8
  call void @llvm.lifetime.start.p0(i64 4, ptr %9) #11
  %13 = load i32, ptr %6, align 4
  store i32 %13, ptr %9, align 4
  call void @llvm.lifetime.start.p0(i64 1, ptr %10) #11
  call void @llvm.lifetime.start.p0(i64 4, ptr %11) #11
  call void @llvm.lifetime.start.p0(i64 4, ptr %12) #11
  %14 = load ptr, ptr %7, align 8
  %15 = load i32, ptr @hf_tds_envchg_length, align 4
  %16 = load ptr, ptr %5, align 8
  %17 = load i32, ptr %9, align 4
  %18 = load ptr, ptr %8, align 8
  %19 = call i32 @tds_get_int2_encoding(ptr noundef %18)
  %20 = call ptr @proto_tree_add_item(ptr noundef %14, i32 noundef %15, ptr noundef %16, i32 noundef %17, i32 noundef 2, i32 noundef %19)
  %21 = load i32, ptr %9, align 4
  %22 = add i32 %21, 2
  store i32 %22, ptr %9, align 4
  %23 = load ptr, ptr %5, align 8
  %24 = load i32, ptr %9, align 4
  %25 = call zeroext i8 @tvb_get_uint8(ptr noundef %23, i32 noundef %24)
  store i8 %25, ptr %10, align 1
  %26 = load ptr, ptr %7, align 8
  %27 = load i32, ptr @hf_tds_envchg_type, align 4
  %28 = load ptr, ptr %5, align 8
  %29 = load i32, ptr %9, align 4
  %30 = call ptr @proto_tree_add_item(ptr noundef %26, i32 noundef %27, ptr noundef %28, i32 noundef %29, i32 noundef 1, i32 noundef 0)
  %31 = load i32, ptr %9, align 4
  %32 = add i32 %31, 1
  store i32 %32, ptr %9, align 4
  %33 = load i8, ptr %10, align 1
  %34 = zext i8 %33 to i32
  switch i32 %34, label %126 [
    i32 1, label %35
    i32 2, label %35
    i32 3, label %35
    i32 4, label %35
    i32 5, label %35
    i32 6, label %35
    i32 13, label %35
    i32 19, label %35
    i32 7, label %65
    i32 8, label %97
    i32 12, label %97
    i32 16, label %97
    i32 9, label %118
    i32 10, label %118
    i32 11, label %118
    i32 17, label %118
    i32 18, label %118
    i32 15, label %126
    i32 20, label %126
  ]

35:                                               ; preds = %4, %4, %4, %4, %4, %4, %4, %4
  %36 = load ptr, ptr %7, align 8
  %37 = load i32, ptr @hf_tds_envchg_newvalue_length, align 4
  %38 = load ptr, ptr %5, align 8
  %39 = load i32, ptr %9, align 4
  %40 = call ptr @proto_tree_add_item_ret_uint(ptr noundef %36, i32 noundef %37, ptr noundef %38, i32 noundef %39, i32 noundef 1, i32 noundef 0, ptr noundef %11)
  %41 = load i32, ptr %9, align 4
  %42 = add i32 %41, 1
  store i32 %42, ptr %9, align 4
  %43 = load i32, ptr %11, align 4
  %44 = icmp ugt i32 %43, 0
  br i1 %44, label %45, label %64

45:                                               ; preds = %35
  %46 = load ptr, ptr %8, align 8
  %47 = call i32 @tds_char_encoding_is_two_byte(ptr noundef %46)
  %48 = icmp ne i32 %47, 0
  br i1 %48, label %49, label %52

49:                                               ; preds = %45
  %50 = load i32, ptr %11, align 4
  %51 = mul i32 %50, 2
  store i32 %51, ptr %11, align 4
  br label %52

52:                                               ; preds = %49, %45
  %53 = load ptr, ptr %7, align 8
  %54 = load i32, ptr @hf_tds_envchg_newvalue_string, align 4
  %55 = load ptr, ptr %5, align 8
  %56 = load i32, ptr %9, align 4
  %57 = load i32, ptr %11, align 4
  %58 = load ptr, ptr %8, align 8
  %59 = call i32 @tds_get_char_encoding(ptr noundef %58)
  %60 = call ptr @proto_tree_add_item(ptr noundef %53, i32 noundef %54, ptr noundef %55, i32 noundef %56, i32 noundef %57, i32 noundef %59)
  %61 = load i32, ptr %11, align 4
  %62 = load i32, ptr %9, align 4
  %63 = add i32 %62, %61
  store i32 %63, ptr %9, align 4
  br label %64

64:                                               ; preds = %52, %35
  br label %126

65:                                               ; preds = %4
  %66 = load ptr, ptr %7, align 8
  %67 = load i32, ptr @hf_tds_envchg_newvalue_length, align 4
  %68 = load ptr, ptr %5, align 8
  %69 = load i32, ptr %9, align 4
  %70 = call ptr @proto_tree_add_item_ret_uint(ptr noundef %66, i32 noundef %67, ptr noundef %68, i32 noundef %69, i32 noundef 1, i32 noundef 0, ptr noundef %11)
  %71 = load i32, ptr %9, align 4
  %72 = add i32 %71, 1
  store i32 %72, ptr %9, align 4
  %73 = load ptr, ptr %7, align 8
  %74 = load i32, ptr @hf_tds_envchg_collate_codepage, align 4
  %75 = load ptr, ptr %5, align 8
  %76 = load i32, ptr %9, align 4
  %77 = load ptr, ptr %8, align 8
  %78 = call i32 @tds_get_int2_encoding(ptr noundef %77)
  %79 = call ptr @proto_tree_add_item(ptr noundef %73, i32 noundef %74, ptr noundef %75, i32 noundef %76, i32 noundef 2, i32 noundef %78)
  %80 = load ptr, ptr %7, align 8
  %81 = load i32, ptr @hf_tds_envchg_collate_flags, align 4
  %82 = load ptr, ptr %5, align 8
  %83 = load i32, ptr %9, align 4
  %84 = add i32 %83, 2
  %85 = load ptr, ptr %8, align 8
  %86 = call i32 @tds_get_int2_encoding(ptr noundef %85)
  %87 = call ptr @proto_tree_add_item(ptr noundef %80, i32 noundef %81, ptr noundef %82, i32 noundef %84, i32 noundef 2, i32 noundef %86)
  %88 = load ptr, ptr %7, align 8
  %89 = load i32, ptr @hf_tds_envchg_collate_charset_id, align 4
  %90 = load ptr, ptr %5, align 8
  %91 = load i32, ptr %9, align 4
  %92 = add i32 %91, 4
  %93 = call ptr @proto_tree_add_item(ptr noundef %88, i32 noundef %89, ptr noundef %90, i32 noundef %92, i32 noundef 1, i32 noundef 0)
  %94 = load i32, ptr %11, align 4
  %95 = load i32, ptr %9, align 4
  %96 = add i32 %95, %94
  store i32 %96, ptr %9, align 4
  br label %126

97:                                               ; preds = %4, %4, %4
  %98 = load ptr, ptr %7, align 8
  %99 = load i32, ptr @hf_tds_envchg_newvalue_length, align 4
  %100 = load ptr, ptr %5, align 8
  %101 = load i32, ptr %9, align 4
  %102 = call ptr @proto_tree_add_item_ret_uint(ptr noundef %98, i32 noundef %99, ptr noundef %100, i32 noundef %101, i32 noundef 1, i32 noundef 0, ptr noundef %11)
  %103 = load i32, ptr %9, align 4
  %104 = add i32 %103, 1
  store i32 %104, ptr %9, align 4
  %105 = load i32, ptr %11, align 4
  %106 = icmp ugt i32 %105, 0
  br i1 %106, label %107, label %117

107:                                              ; preds = %97
  %108 = load ptr, ptr %7, align 8
  %109 = load i32, ptr @hf_tds_envchg_newvalue_bytes, align 4
  %110 = load ptr, ptr %5, align 8
  %111 = load i32, ptr %9, align 4
  %112 = load i32, ptr %11, align 4
  %113 = call ptr @proto_tree_add_item(ptr noundef %108, i32 noundef %109, ptr noundef %110, i32 noundef %111, i32 noundef %112, i32 noundef 0)
  %114 = load i32, ptr %11, align 4
  %115 = load i32, ptr %9, align 4
  %116 = add i32 %115, %114
  store i32 %116, ptr %9, align 4
  br label %117

117:                                              ; preds = %107, %97
  br label %126

118:                                              ; preds = %4, %4, %4, %4, %4
  %119 = load ptr, ptr %7, align 8
  %120 = load i32, ptr @hf_tds_envchg_newvalue_length, align 4
  %121 = load ptr, ptr %5, align 8
  %122 = load i32, ptr %9, align 4
  %123 = call ptr @proto_tree_add_item(ptr noundef %119, i32 noundef %120, ptr noundef %121, i32 noundef %122, i32 noundef 1, i32 noundef 0)
  %124 = load i32, ptr %9, align 4
  %125 = add i32 %124, 1
  store i32 %125, ptr %9, align 4
  br label %126

126:                                              ; preds = %4, %4, %4, %118, %117, %65, %64
  %127 = load i8, ptr %10, align 1
  %128 = zext i8 %127 to i32
  switch i32 %128, label %188 [
    i32 1, label %129
    i32 2, label %129
    i32 3, label %129
    i32 4, label %129
    i32 5, label %159
    i32 6, label %159
    i32 8, label %159
    i32 12, label %159
    i32 13, label %159
    i32 15, label %159
    i32 16, label %159
    i32 18, label %159
    i32 19, label %159
    i32 7, label %167
    i32 9, label %167
    i32 10, label %167
    i32 11, label %167
    i32 17, label %167
    i32 20, label %188
  ]

129:                                              ; preds = %126, %126, %126, %126
  %130 = load ptr, ptr %7, align 8
  %131 = load i32, ptr @hf_tds_envchg_oldvalue_length, align 4
  %132 = load ptr, ptr %5, align 8
  %133 = load i32, ptr %9, align 4
  %134 = call ptr @proto_tree_add_item_ret_uint(ptr noundef %130, i32 noundef %131, ptr noundef %132, i32 noundef %133, i32 noundef 1, i32 noundef 0, ptr noundef %12)
  %135 = load i32, ptr %9, align 4
  %136 = add i32 %135, 1
  store i32 %136, ptr %9, align 4
  %137 = load i32, ptr %12, align 4
  %138 = icmp ugt i32 %137, 0
  br i1 %138, label %139, label %158

139:                                              ; preds = %129
  %140 = load ptr, ptr %8, align 8
  %141 = call i32 @tds_char_encoding_is_two_byte(ptr noundef %140)
  %142 = icmp ne i32 %141, 0
  br i1 %142, label %143, label %146

143:                                              ; preds = %139
  %144 = load i32, ptr %12, align 4
  %145 = mul i32 %144, 2
  store i32 %145, ptr %12, align 4
  br label %146

146:                                              ; preds = %143, %139
  %147 = load ptr, ptr %7, align 8
  %148 = load i32, ptr @hf_tds_envchg_oldvalue_string, align 4
  %149 = load ptr, ptr %5, align 8
  %150 = load i32, ptr %9, align 4
  %151 = load i32, ptr %12, align 4
  %152 = load ptr, ptr %8, align 8
  %153 = call i32 @tds_get_char_encoding(ptr noundef %152)
  %154 = call ptr @proto_tree_add_item(ptr noundef %147, i32 noundef %148, ptr noundef %149, i32 noundef %150, i32 noundef %151, i32 noundef %153)
  %155 = load i32, ptr %12, align 4
  %156 = load i32, ptr %9, align 4
  %157 = add i32 %156, %155
  store i32 %157, ptr %9, align 4
  br label %158

158:                                              ; preds = %146, %129
  br label %188

159:                                              ; preds = %126, %126, %126, %126, %126, %126, %126, %126, %126
  %160 = load ptr, ptr %7, align 8
  %161 = load i32, ptr @hf_tds_envchg_oldvalue_length, align 4
  %162 = load ptr, ptr %5, align 8
  %163 = load i32, ptr %9, align 4
  %164 = call ptr @proto_tree_add_item(ptr noundef %160, i32 noundef %161, ptr noundef %162, i32 noundef %163, i32 noundef 1, i32 noundef 0)
  %165 = load i32, ptr %9, align 4
  %166 = add i32 %165, 1
  store i32 %166, ptr %9, align 4
  br label %188

167:                                              ; preds = %126, %126, %126, %126, %126
  %168 = load ptr, ptr %7, align 8
  %169 = load i32, ptr @hf_tds_envchg_oldvalue_length, align 4
  %170 = load ptr, ptr %5, align 8
  %171 = load i32, ptr %9, align 4
  %172 = call ptr @proto_tree_add_item_ret_uint(ptr noundef %168, i32 noundef %169, ptr noundef %170, i32 noundef %171, i32 noundef 1, i32 noundef 0, ptr noundef %12)
  %173 = load i32, ptr %9, align 4
  %174 = add i32 %173, 1
  store i32 %174, ptr %9, align 4
  %175 = load i32, ptr %12, align 4
  %176 = icmp ugt i32 %175, 0
  br i1 %176, label %177, label %187

177:                                              ; preds = %167
  %178 = load ptr, ptr %7, align 8
  %179 = load i32, ptr @hf_tds_envchg_oldvalue_bytes, align 4
  %180 = load ptr, ptr %5, align 8
  %181 = load i32, ptr %9, align 4
  %182 = load i32, ptr %12, align 4
  %183 = call ptr @proto_tree_add_item(ptr noundef %178, i32 noundef %179, ptr noundef %180, i32 noundef %181, i32 noundef %182, i32 noundef 0)
  %184 = load i32, ptr %12, align 4
  %185 = load i32, ptr %9, align 4
  %186 = add i32 %185, %184
  store i32 %186, ptr %9, align 4
  br label %187

187:                                              ; preds = %177, %167
  br label %188

188:                                              ; preds = %126, %126, %187, %159, %158
  %189 = load i32, ptr %9, align 4
  %190 = load i32, ptr %6, align 4
  %191 = sub i32 %189, %190
  call void @llvm.lifetime.end.p0(i64 4, ptr %12) #11
  call void @llvm.lifetime.end.p0(i64 4, ptr %11) #11
  call void @llvm.lifetime.end.p0(i64 1, ptr %10) #11
  call void @llvm.lifetime.end.p0(i64 4, ptr %9) #11
  ret i32 %191
}