; Function Attrs: null_pointer_is_valid sspstrong uwtable
define internal fastcc i32 @dissect_tds_envchg_token(ptr noundef nonnull %0, i32 noundef %1, ptr noundef %2, ptr noundef readonly captures(none) %3) unnamed_addr #0 {
  %5 = alloca i32, align 4
  %6 = alloca i32, align 4
  call void @llvm.lifetime.start.p0(i64 4, ptr nonnull %5) #13
  call void @llvm.lifetime.start.p0(i64 4, ptr nonnull %6) #13
  %7 = load i32, ptr @hf_tds_envchg_length, align 4
  %8 = getelementptr i8, ptr %3, i64 20
  %.val83 = load i32, ptr %8, align 4
  %9 = icmp eq i32 %.val83, 2
  %10 = select i1 %9, i32 0, i32 -2147483648
  %11 = tail call ptr @proto_tree_add_item(ptr noundef %2, i32 noundef %7, ptr noundef nonnull %0, i32 noundef %1, i32 noundef 2, i32 noundef %10)
  %12 = add i32 %1, 2
  %13 = tail call zeroext i8 @tvb_get_uint8(ptr noundef nonnull %0, i32 noundef %12)
  %14 = load i32, ptr @hf_tds_envchg_type, align 4
  %15 = tail call ptr @proto_tree_add_item(ptr noundef %2, i32 noundef %14, ptr noundef nonnull %0, i32 noundef %12, i32 noundef 1, i32 noundef 0)
  %16 = add i32 %1, 3
  switch i8 %13, label %63 [
    i8 1, label %17
    i8 2, label %17
    i8 3, label %17
    i8 4, label %17
    i8 5, label %17
    i8 6, label %17
    i8 13, label %17
    i8 19, label %17
    i8 7, label %.thread
    i8 8, label %49
    i8 12, label %49
    i8 16, label %49
    i8 9, label %59
    i8 10, label %59
    i8 11, label %59
    i8 17, label %59
    i8 18, label %59
  ]

17:                                               ; preds = %4, %4, %4, %4, %4, %4, %4, %4
  %18 = load i32, ptr @hf_tds_envchg_newvalue_length, align 4
  %19 = call ptr @proto_tree_add_item_ret_uint(ptr noundef %2, i32 noundef %18, ptr noundef nonnull %0, i32 noundef %16, i32 noundef 1, i32 noundef 0, ptr noundef nonnull %5)
  %20 = add i32 %1, 4
  %21 = load i32, ptr %5, align 4
  %.not77 = icmp eq i32 %21, 0
  br i1 %.not77, label %63, label %22

22:                                               ; preds = %17
  %23 = getelementptr i8, ptr %3, i64 28
  %.val86 = load i32, ptr %23, align 4
  %.not95 = icmp eq i32 %.val86, 120
  br i1 %.not95, label %24, label %26

24:                                               ; preds = %22
  %25 = shl i32 %21, 1
  store i32 %25, ptr %5, align 4
  br label %26

26:                                               ; preds = %24, %22
  %27 = phi i32 [ %25, %24 ], [ %21, %22 ]
  %28 = load i32, ptr @hf_tds_envchg_newvalue_string, align 4
  %switch.selectcmp.i = icmp eq i32 %.val86, 7
  %switch.select.i = select i1 %switch.selectcmp.i, i32 46, i32 0
  %switch.select2.i = select i1 %.not95, i32 -2147483644, i32 %switch.select.i
  %29 = call ptr @proto_tree_add_item(ptr noundef %2, i32 noundef %28, ptr noundef nonnull %0, i32 noundef %20, i32 noundef %27, i32 noundef %switch.select2.i)
  %30 = load i32, ptr %5, align 4
  %31 = add i32 %30, %20
  br label %63

.thread:                                          ; preds = %4
  %32 = load i32, ptr @hf_tds_envchg_newvalue_length, align 4
  %33 = call ptr @proto_tree_add_item_ret_uint(ptr noundef %2, i32 noundef %32, ptr noundef nonnull %0, i32 noundef %16, i32 noundef 1, i32 noundef 0, ptr noundef nonnull %5)
  %34 = add i32 %1, 4
  %35 = load i32, ptr @hf_tds_envchg_collate_codepage, align 4
  %.val82 = load i32, ptr %8, align 4
  %36 = icmp eq i32 %.val82, 2
  %37 = select i1 %36, i32 0, i32 -2147483648
  %38 = call ptr @proto_tree_add_item(ptr noundef %2, i32 noundef %35, ptr noundef nonnull %0, i32 noundef %34, i32 noundef 2, i32 noundef %37)
  %39 = load i32, ptr @hf_tds_envchg_collate_flags, align 4
  %40 = add i32 %1, 6
  %.val = load i32, ptr %8, align 4
  %41 = icmp eq i32 %.val, 2
  %42 = select i1 %41, i32 0, i32 -2147483648
  %43 = call ptr @proto_tree_add_item(ptr noundef %2, i32 noundef %39, ptr noundef nonnull %0, i32 noundef %40, i32 noundef 2, i32 noundef %42)
  %44 = load i32, ptr @hf_tds_envchg_collate_charset_id, align 4
  %45 = add i32 %1, 8
  %46 = call ptr @proto_tree_add_item(ptr noundef %2, i32 noundef %44, ptr noundef nonnull %0, i32 noundef %45, i32 noundef 1, i32 noundef 0)
  %47 = load i32, ptr %5, align 4
  %48 = add i32 %47, %34
  br label %83

49:                                               ; preds = %4, %4, %4
  %50 = load i32, ptr @hf_tds_envchg_newvalue_length, align 4
  %51 = call ptr @proto_tree_add_item_ret_uint(ptr noundef %2, i32 noundef %50, ptr noundef nonnull %0, i32 noundef %16, i32 noundef 1, i32 noundef 0, ptr noundef nonnull %5)
  %52 = add i32 %1, 4
  %53 = load i32, ptr %5, align 4
  %.not = icmp eq i32 %53, 0
  br i1 %.not, label %63, label %54

54:                                               ; preds = %49
  %55 = load i32, ptr @hf_tds_envchg_newvalue_bytes, align 4
  %56 = call ptr @proto_tree_add_item(ptr noundef %2, i32 noundef %55, ptr noundef nonnull %0, i32 noundef %52, i32 noundef %53, i32 noundef 0)
  %57 = load i32, ptr %5, align 4
  %58 = add i32 %57, %52
  br label %63

59:                                               ; preds = %4, %4, %4, %4, %4
  %60 = load i32, ptr @hf_tds_envchg_newvalue_length, align 4
  %61 = tail call ptr @proto_tree_add_item(ptr noundef %2, i32 noundef %60, ptr noundef nonnull %0, i32 noundef %16, i32 noundef 1, i32 noundef 0)
  %62 = add i32 %1, 4
  br label %63

63:                                               ; preds = %49, %54, %17, %26, %59, %4
  %.0 = phi i32 [ %16, %4 ], [ %62, %59 ], [ %58, %54 ], [ %52, %49 ], [ %31, %26 ], [ %20, %17 ]
  switch i8 %13, label %93 [
    i8 1, label %64
    i8 2, label %64
    i8 3, label %64
    i8 4, label %64
    i8 5, label %79
    i8 6, label %79
    i8 8, label %79
    i8 12, label %79
    i8 13, label %79
    i8 15, label %79
    i8 16, label %79
    i8 18, label %79
    i8 19, label %79
    i8 7, label %83
    i8 9, label %83
    i8 10, label %83
    i8 11, label %83
    i8 17, label %83
  ]

64:                                               ; preds = %63, %63, %63, %63
  %65 = load i32, ptr @hf_tds_envchg_oldvalue_length, align 4
  %66 = call ptr @proto_tree_add_item_ret_uint(ptr noundef %2, i32 noundef %65, ptr noundef nonnull %0, i32 noundef %.0, i32 noundef 1, i32 noundef 0, ptr noundef nonnull %6)
  %67 = add i32 %.0, 1
  %68 = load i32, ptr %6, align 4
  %.not80 = icmp eq i32 %68, 0
  br i1 %.not80, label %93, label %69

69:                                               ; preds = %64
  %70 = getelementptr i8, ptr %3, i64 28
  %.val87 = load i32, ptr %70, align 4
  %.not96 = icmp eq i32 %.val87, 120
  br i1 %.not96, label %71, label %73

71:                                               ; preds = %69
  %72 = shl i32 %68, 1
  store i32 %72, ptr %6, align 4
  br label %73

73:                                               ; preds = %71, %69
  %74 = phi i32 [ %72, %71 ], [ %68, %69 ]
  %75 = load i32, ptr @hf_tds_envchg_oldvalue_string, align 4
  %switch.selectcmp.i88 = icmp eq i32 %.val87, 7
  %switch.select.i89 = select i1 %switch.selectcmp.i88, i32 46, i32 0
  %switch.select2.i91 = select i1 %.not96, i32 -2147483644, i32 %switch.select.i89
  %76 = call ptr @proto_tree_add_item(ptr noundef %2, i32 noundef %75, ptr noundef nonnull %0, i32 noundef %67, i32 noundef %74, i32 noundef %switch.select2.i91)
  %77 = load i32, ptr %6, align 4
  %78 = add i32 %77, %67
  br label %93

79:                                               ; preds = %63, %63, %63, %63, %63, %63, %63, %63, %63
  %80 = load i32, ptr @hf_tds_envchg_oldvalue_length, align 4
  %81 = call ptr @proto_tree_add_item(ptr noundef %2, i32 noundef %80, ptr noundef nonnull %0, i32 noundef %.0, i32 noundef 1, i32 noundef 0)
  %82 = add i32 %.0, 1
  br label %93

83:                                               ; preds = %.thread, %63, %63, %63, %63, %63
  %.094 = phi i32 [ %48, %.thread ], [ %.0, %63 ], [ %.0, %63 ], [ %.0, %63 ], [ %.0, %63 ], [ %.0, %63 ]
  %84 = load i32, ptr @hf_tds_envchg_oldvalue_length, align 4
  %85 = call ptr @proto_tree_add_item_ret_uint(ptr noundef %2, i32 noundef %84, ptr noundef nonnull %0, i32 noundef %.094, i32 noundef 1, i32 noundef 0, ptr noundef nonnull %6)
  %86 = add i32 %.094, 1
  %87 = load i32, ptr %6, align 4
  %.not79 = icmp eq i32 %87, 0
  br i1 %.not79, label %93, label %88

88:                                               ; preds = %83
  %89 = load i32, ptr @hf_tds_envchg_oldvalue_bytes, align 4
  %90 = call ptr @proto_tree_add_item(ptr noundef %2, i32 noundef %89, ptr noundef nonnull %0, i32 noundef %86, i32 noundef %87, i32 noundef 0)
  %91 = load i32, ptr %6, align 4
  %92 = add i32 %91, %86
  br label %93

93:                                               ; preds = %83, %88, %64, %73, %79, %63
  %.1 = phi i32 [ %.0, %63 ], [ %92, %88 ], [ %86, %83 ], [ %82, %79 ], [ %78, %73 ], [ %67, %64 ]
  %94 = sub i32 %.1, %1
  call void @llvm.lifetime.end.p0(i64 4, ptr nonnull %6) #13
  call void @llvm.lifetime.end.p0(i64 4, ptr nonnull %5) #13
  ret i32 %94
}